target datalayout = "e-m:e-p270:32:32-p271:32:32-p272:64:64-i64:64-i128:128-f80:128-n8:16:32:64-S128"
target triple = "x86_64-pc-linux-gnu"

%struct._generic_ARKInterp = type { ptr, ptr }
%struct.ARKodeMemRec = type { ptr, double, ptr, i32, i32, double, double, ptr, i32, double, ptr, i32, i32, ptr, ptr, i32, ptr, ptr, i32, ptr, ptr, ptr, ptr, ptr, ptr, ptr, ptr, ptr, ptr, ptr, ptr, ptr, ptr, ptr, i32, ptr, ptr, i32, ptr, i32, ptr, ptr, ptr, ptr, ptr, ptr, ptr, ptr, ptr, ptr, ptr, ptr, ptr, ptr, ptr, ptr, ptr, ptr, ptr, ptr, ptr, ptr, ptr, ptr, ptr, ptr, i32, ptr, ptr, ptr, ptr, ptr, ptr, ptr, i32, ptr, ptr, ptr, i32, ptr, ptr, ptr, ptr, ptr, ptr, ptr, i32, i32, i32, i32, double, double, double, double, double, double, double, double, double, double, i32, ptr, i64, i32, i32, i32, i32, i64, i64, i32, i64, i64, i64, i64, i64, i64, i64, double, double, double, double, double, i32, double, double, i32, i32, i32, i32, i32, i32, i32, i32, ptr, i32, ptr, ptr, ptr, ptr, i32, i32, i32 }
%struct._ARKInterpContent_Lagrange = type { i32, i32, ptr, ptr, i32, double }

; Function Attrs: nounwind uwtable
define void @arkInterpFree_Lagrange(ptr noundef %0, ptr noundef %1) #0 {
  %3 = alloca ptr, align 8
  %4 = alloca ptr, align 8
  %5 = alloca i32, align 4
  %6 = alloca i32, align 4
  store ptr %0, ptr %3, align 8, !tbaa !3
  store ptr %1, ptr %4, align 8, !tbaa !8
  call void @llvm.lifetime.start.p0(i64 4, ptr %5) #7
  %7 = load ptr, ptr %4, align 8, !tbaa !8
  %8 = icmp eq ptr %7, null
  br i1 %8, label %9, label %10

9:                                                ; preds = %2
  store i32 1, ptr %6, align 4
  br label %132

10:                                               ; preds = %2
  %11 = load ptr, ptr %4, align 8, !tbaa !8
  %12 = getelementptr inbounds nuw %struct._generic_ARKInterp, ptr %11, i32 0, i32 0
  %13 = load ptr, ptr %12, align 8, !tbaa !35
  %14 = icmp ne ptr %13, null
  br i1 %14, label %15, label %119

15:                                               ; preds = %10
  %16 = load ptr, ptr %4, align 8, !tbaa !8
  %17 = getelementptr inbounds nuw %struct._generic_ARKInterp, ptr %16, i32 0, i32 0
  %18 = load ptr, ptr %17, align 8, !tbaa !35
  %19 = getelementptr inbounds nuw %struct._ARKInterpContent_Lagrange, ptr %18, i32 0, i32 2
  %20 = load ptr, ptr %19, align 8, !tbaa !69
  %21 = icmp ne ptr %20, null
  br i1 %21, label %22, label %74

22:                                               ; preds = %15
  store i32 0, ptr %5, align 4, !tbaa !24
  br label %23

23:                                               ; preds = %61, %22
  %24 = load i32, ptr %5, align 4, !tbaa !24
  %25 = load ptr, ptr %4, align 8, !tbaa !8
  %26 = getelementptr inbounds nuw %struct._generic_ARKInterp, ptr %25, i32 0, i32 0
  %27 = load ptr, ptr %26, align 8, !tbaa !35
  %28 = getelementptr inbounds nuw %struct._ARKInterpContent_Lagrange, ptr %27, i32 0, i32 1
  %29 = load i32, ptr %28, align 4, !tbaa !66
  %30 = icmp slt i32 %24, %29
  br i1 %30, label %31, label %64

31:                                               ; preds = %23
  %32 = load ptr, ptr %4, align 8, !tbaa !8
  %33 = getelementptr inbounds nuw %struct._generic_ARKInterp, ptr %32, i32 0, i32 0
  %34 = load ptr, ptr %33, align 8, !tbaa !35
  %35 = getelementptr inbounds nuw %struct._ARKInterpContent_Lagrange, ptr %34, i32 0, i32 2
  %36 = load ptr, ptr %35, align 8, !tbaa !69
  %37 = load i32, ptr %5, align 4, !tbaa !24
  %38 = sext i32 %37 to i64
  %39 = getelementptr inbounds ptr, ptr %36, i64 %38
  %40 = load ptr, ptr %39, align 8, !tbaa !13
  %41 = icmp ne ptr %40, null
  br i1 %41, label %42, label %60

42:                                               ; preds = %31
  %43 = load ptr, ptr %3, align 8, !tbaa !3
  %44 = load ptr, ptr %4, align 8, !tbaa !8
  %45 = getelementptr inbounds nuw %struct._generic_ARKInterp, ptr %44, i32 0, i32 0
  %46 = load ptr, ptr %45, align 8, !tbaa !35
  %47 = getelementptr inbounds nuw %struct._ARKInterpContent_Lagrange, ptr %46, i32 0, i32 2
  %48 = load ptr, ptr %47, align 8, !tbaa !69
  %49 = load i32, ptr %5, align 4, !tbaa !24
  %50 = sext i32 %49 to i64
  %51 = getelementptr inbounds ptr, ptr %48, i64 %50
  call void @arkFreeVec(ptr noundef %43, ptr noundef %51)
  %52 = load ptr, ptr %4, align 8, !tbaa !8
  %53 = getelementptr inbounds nuw %struct._generic_ARKInterp, ptr %52, i32 0, i32 0
  %54 = load ptr, ptr %53, align 8, !tbaa !35
  %55 = getelementptr inbounds nuw %struct._ARKInterpContent_Lagrange, ptr %54, i32 0, i32 2
  %56 = load ptr, ptr %55, align 8, !tbaa !69
  %57 = load i32, ptr %5, align 4, !tbaa !24
  %58 = sext i32 %57 to i64
  %59 = getelementptr inbounds ptr, ptr %56, i64 %58
  store ptr null, ptr %59, align 8, !tbaa !13
  br label %60

60:                                               ; preds = %42, %31
  br label %61

61:                                               ; preds = %60
  %62 = load i32, ptr %5, align 4, !tbaa !24
  %63 = add nsw i32 %62, 1
  store i32 %63, ptr %5, align 4, !tbaa !24
  br label %23

64:                                               ; preds = %23
  %65 = load ptr, ptr %4, align 8, !tbaa !8
  %66 = getelementptr inbounds nuw %struct._generic_ARKInterp, ptr %65, i32 0, i32 0
  %67 = load ptr, ptr %66, align 8, !tbaa !35
  %68 = getelementptr inbounds nuw %struct._ARKInterpContent_Lagrange, ptr %67, i32 0, i32 2
  %69 = load ptr, ptr %68, align 8, !tbaa !69
  call void @free(ptr noundef %69) #7
  %70 = load ptr, ptr %4, align 8, !tbaa !8
  %71 = getelementptr inbounds nuw %struct._generic_ARKInterp, ptr %70, i32 0, i32 0
  %72 = load ptr, ptr %71, align 8, !tbaa !35
  %73 = getelementptr inbounds nuw %struct._ARKInterpContent_Lagrange, ptr %72, i32 0, i32 2
  store ptr null, ptr %73, align 8, !tbaa !69
  br label %74

74:                                               ; preds = %64, %15
  %75 = load ptr, ptr %4, align 8, !tbaa !8
  %76 = getelementptr inbounds nuw %struct._generic_ARKInterp, ptr %75, i32 0, i32 0
  %77 = load ptr, ptr %76, align 8, !tbaa !35
  %78 = getelementptr inbounds nuw %struct._ARKInterpContent_Lagrange, ptr %77, i32 0, i32 3
  %79 = load ptr, ptr %78, align 8, !tbaa !68
  %80 = icmp ne ptr %79, null
  br i1 %80, label %81, label %91

81:                                               ; preds = %74
  %82 = load ptr, ptr %4, align 8, !tbaa !8
  %83 = getelementptr inbounds nuw %struct._generic_ARKInterp, ptr %82, i32 0, i32 0
  %84 = load ptr, ptr %83, align 8, !tbaa !35
  %85 = getelementptr inbounds nuw %struct._ARKInterpContent_Lagrange, ptr %84, i32 0, i32 3
  %86 = load ptr, ptr %85, align 8, !tbaa !68
  call void @free(ptr noundef %86) #7
  %87 = load ptr, ptr %4, align 8, !tbaa !8
  %88 = getelementptr inbounds nuw %struct._generic_ARKInterp, ptr %87, i32 0, i32 0
  %89 = load ptr, ptr %88, align 8, !tbaa !35
  %90 = getelementptr inbounds nuw %struct._ARKInterpContent_Lagrange, ptr %89, i32 0, i32 3
  store ptr null, ptr %90, align 8, !tbaa !68
  br label %91

91:                                               ; preds = %81, %74
  %92 = load ptr, ptr %4, align 8, !tbaa !8
  %93 = getelementptr inbounds nuw %struct._generic_ARKInterp, ptr %92, i32 0, i32 0
  %94 = load ptr, ptr %93, align 8, !tbaa !35
  %95 = getelementptr inbounds nuw %struct._ARKInterpContent_Lagrange, ptr %94, i32 0, i32 0
  %96 = load i32, ptr %95, align 8, !tbaa !62
  %97 = add nsw i32 %96, 1
  %98 = sext i32 %97 to i64
  %99 = load ptr, ptr %3, align 8, !tbaa !3
  %100 = getelementptr inbounds nuw %struct.ARKodeMemRec, ptr %99, i32 0, i32 115
  %101 = load i64, ptr %100, align 8, !tbaa !42
  %102 = sub nsw i64 %101, %98
  store i64 %102, ptr %100, align 8, !tbaa !42
  %103 = load ptr, ptr %4, align 8, !tbaa !8
  %104 = getelementptr inbounds nuw %struct._generic_ARKInterp, ptr %103, i32 0, i32 0
  %105 = load ptr, ptr %104, align 8, !tbaa !35
  %106 = getelementptr inbounds nuw %struct._ARKInterpContent_Lagrange, ptr %105, i32 0, i32 0
  %107 = load i32, ptr %106, align 8, !tbaa !62
  %108 = add nsw i32 %107, 2
  %109 = sext i32 %108 to i64
  %110 = load ptr, ptr %3, align 8, !tbaa !3
  %111 = getelementptr inbounds nuw %struct.ARKodeMemRec, ptr %110, i32 0, i32 116
  %112 = load i64, ptr %111, align 8, !tbaa !48
  %113 = sub nsw i64 %112, %109
  store i64 %113, ptr %111, align 8, !tbaa !48
  %114 = load ptr, ptr %4, align 8, !tbaa !8
  %115 = getelementptr inbounds nuw %struct._generic_ARKInterp, ptr %114, i32 0, i32 0
  %116 = load ptr, ptr %115, align 8, !tbaa !35
  call void @free(ptr noundef %116) #7
  %117 = load ptr, ptr %4, align 8, !tbaa !8
  %118 = getelementptr inbounds nuw %struct._generic_ARKInterp, ptr %117, i32 0, i32 0
  store ptr null, ptr %118, align 8, !tbaa !35
  br label %119

119:                                              ; preds = %91, %10
  %120 = load ptr, ptr %4, align 8, !tbaa !8
  %121 = getelementptr inbounds nuw %struct._generic_ARKInterp, ptr %120, i32 0, i32 1
  %122 = load ptr, ptr %121, align 8, !tbaa !15
  %123 = icmp ne ptr %122, null
  br i1 %123, label %124, label %130

124:                                              ; preds = %119
  %125 = load ptr, ptr %4, align 8, !tbaa !8
  %126 = getelementptr inbounds nuw %struct._generic_ARKInterp, ptr %125, i32 0, i32 1
  %127 = load ptr, ptr %126, align 8, !tbaa !15
  call void @free(ptr noundef %127) #7
  %128 = load ptr, ptr %4, align 8, !tbaa !8
  %129 = getelementptr inbounds nuw %struct._generic_ARKInterp, ptr %128, i32 0, i32 1
  store ptr null, ptr %129, align 8, !tbaa !15
  br label %130

130:                                              ; preds = %124, %119
  %131 = load ptr, ptr %4, align 8, !tbaa !8
  call void @free(ptr noundef %131) #7
  store ptr null, ptr %4, align 8, !tbaa !8
  store i32 1, ptr %6, align 4
  br label %132

132:                                              ; preds = %130, %9
  call void @llvm.lifetime.end.p0(i64 4, ptr %5) #7
  ret void
}