; Function Attrs: nounwind uwtable
define void @arkInterpFree_Lagrange(ptr noundef %0, ptr noundef captures(address_is_null) %1) #0 {
  %3 = icmp eq ptr %1, null
  br i1 %3, label %56, label %4

4:                                                ; preds = %2
  %5 = load ptr, ptr %1, align 8, !tbaa !17
  %.not = icmp eq ptr %5, null
  br i1 %.not, label %51, label %6

6:                                                ; preds = %4
  %7 = getelementptr inbounds nuw i8, ptr %5, i64 8
  %8 = load ptr, ptr %7, align 8, !tbaa !55
  %.not31 = icmp eq ptr %8, null
  br i1 %.not31, label %31, label %.preheader

.preheader:                                       ; preds = %6
  %9 = getelementptr inbounds nuw i8, ptr %5, i64 4
  %10 = load i32, ptr %9, align 4, !tbaa !56
  %11 = icmp sgt i32 %10, 0
  br i1 %11, label %.lr.ph, label %._crit_edge

.lr.ph:                                           ; preds = %.preheader, %22
  %12 = phi ptr [ %23, %22 ], [ %5, %.preheader ]
  %indvars.iv = phi i64 [ %indvars.iv.next, %22 ], [ 0, %.preheader ]
  %13 = getelementptr inbounds nuw i8, ptr %12, i64 8
  %14 = load ptr, ptr %13, align 8, !tbaa !55
  %15 = getelementptr inbounds nuw ptr, ptr %14, i64 %indvars.iv
  %16 = load ptr, ptr %15, align 8, !tbaa !48
  %.not34 = icmp eq ptr %16, null
  br i1 %.not34, label %22, label %17

17:                                               ; preds = %.lr.ph
  tail call void @arkFreeVec(ptr noundef %0, ptr noundef nonnull %15) #14
  %18 = load ptr, ptr %1, align 8, !tbaa !17
  %19 = getelementptr inbounds nuw i8, ptr %18, i64 8
  %20 = load ptr, ptr %19, align 8, !tbaa !55
  %21 = getelementptr inbounds nuw ptr, ptr %20, i64 %indvars.iv
  store ptr null, ptr %21, align 8, !tbaa !48
  br label %22

22:                                               ; preds = %.lr.ph, %17
  %23 = phi ptr [ %12, %.lr.ph ], [ %18, %17 ]
  %indvars.iv.next = add nuw nsw i64 %indvars.iv, 1
  %24 = getelementptr inbounds nuw i8, ptr %23, i64 4
  %25 = load i32, ptr %24, align 4, !tbaa !56
  %26 = sext i32 %25 to i64
  %27 = icmp slt i64 %indvars.iv.next, %26
  br i1 %27, label %.lr.ph, label %._crit_edge.loopexit

._crit_edge.loopexit:                             ; preds = %22
  %.phi.trans.insert = getelementptr inbounds nuw i8, ptr %23, i64 8
  %.pre = load ptr, ptr %.phi.trans.insert, align 8, !tbaa !55
  br label %._crit_edge

._crit_edge:                                      ; preds = %._crit_edge.loopexit, %.preheader
  %28 = phi ptr [ %8, %.preheader ], [ %.pre, %._crit_edge.loopexit ]
  tail call void @free(ptr noundef %28) #14
  %29 = load ptr, ptr %1, align 8, !tbaa !17
  %30 = getelementptr inbounds nuw i8, ptr %29, i64 8
  store ptr null, ptr %30, align 8, !tbaa !55
  br label %31

31:                                               ; preds = %._crit_edge, %6
  %32 = phi ptr [ %29, %._crit_edge ], [ %5, %6 ]
  %33 = getelementptr inbounds nuw i8, ptr %32, i64 16
  %34 = load ptr, ptr %33, align 8, !tbaa !58
  %.not32 = icmp eq ptr %34, null
  br i1 %.not32, label %38, label %35

35:                                               ; preds = %31
  tail call void @free(ptr noundef nonnull %34) #14
  %36 = load ptr, ptr %1, align 8, !tbaa !17
  %37 = getelementptr inbounds nuw i8, ptr %36, i64 16
  store ptr null, ptr %37, align 8, !tbaa !58
  br label %38

38:                                               ; preds = %35, %31
  %39 = phi ptr [ %36, %35 ], [ %32, %31 ]
  %40 = load i32, ptr %39, align 8, !tbaa !49
  %41 = add nsw i32 %40, 1
  %42 = sext i32 %41 to i64
  %43 = getelementptr inbounds nuw i8, ptr %0, i64 872
  %44 = load i64, ptr %43, align 8, !tbaa !23
  %45 = sub nsw i64 %44, %42
  store i64 %45, ptr %43, align 8, !tbaa !23
  %46 = add nsw i32 %40, 2
  %47 = sext i32 %46 to i64
  %48 = getelementptr inbounds nuw i8, ptr %0, i64 880
  %49 = load i64, ptr %48, align 8, !tbaa !31
  %50 = sub nsw i64 %49, %47
  store i64 %50, ptr %48, align 8, !tbaa !31
  tail call void @free(ptr noundef nonnull %39) #14
  store ptr null, ptr %1, align 8, !tbaa !17
  br label %51

51:                                               ; preds = %38, %4
  %52 = getelementptr inbounds nuw i8, ptr %1, i64 8
  %53 = load ptr, ptr %52, align 8, !tbaa !3
  %.not33 = icmp eq ptr %53, null
  br i1 %.not33, label %55, label %54

54:                                               ; preds = %51
  tail call void @free(ptr noundef nonnull %53) #14
  br label %55

55:                                               ; preds = %54, %51
  tail call void @free(ptr noundef nonnull %1) #14
  br label %56

56:                                               ; preds = %2, %55
  ret void
}